target datalayout = "e-m:e-p270:32:32-p271:32:32-p272:64:64-i64:64-i128:128-f80:128-n8:16:32:64-S128"
target triple = "x86_64-pc-linux-gnu"

%"class.ncnn::Mat" = type { ptr, ptr, i64, i32, ptr, i32, i32, i32, i32, i32, i64 }

@stderr = external global ptr, align 8
@.str = private unnamed_addr constant [24 x i8] c"unknown convert type %d\00", align 1
@.str.1 = private unnamed_addr constant [2 x i8] c"\0A\00", align 1
@.str.3 = private unnamed_addr constant [35 x i8] c"roi %d %d %d %d out of image %d %d\00", align 1

; Function Attrs: alwaysinline mustprogress nounwind uwtable
define linkonce_odr hidden void @_ZN4ncnn3MatC2Ev(ptr noundef nonnull align 8 dereferenceable(72) %0) unnamed_addr #5 comdat align 2 {
  %2 = alloca ptr, align 8
  store ptr %0, ptr %2, align 8, !tbaa !25
  %3 = load ptr, ptr %2, align 8
  %4 = getelementptr inbounds nuw %"class.ncnn::Mat", ptr %3, i32 0, i32 0
  store ptr null, ptr %4, align 8, !tbaa !27
  %5 = getelementptr inbounds nuw %"class.ncnn::Mat", ptr %3, i32 0, i32 1
  store ptr null, ptr %5, align 8, !tbaa !30
  %6 = getelementptr inbounds nuw %"class.ncnn::Mat", ptr %3, i32 0, i32 2
  store i64 0, ptr %6, align 8, !tbaa !31
  %7 = getelementptr inbounds nuw %"class.ncnn::Mat", ptr %3, i32 0, i32 3
  store i32 0, ptr %7, align 8, !tbaa !32
  %8 = getelementptr inbounds nuw %"class.ncnn::Mat", ptr %3, i32 0, i32 4
  store ptr null, ptr %8, align 8, !tbaa !33
  %9 = getelementptr inbounds nuw %"class.ncnn::Mat", ptr %3, i32 0, i32 5
  store i32 0, ptr %9, align 8, !tbaa !34
  %10 = getelementptr inbounds nuw %"class.ncnn::Mat", ptr %3, i32 0, i32 6
  store i32 0, ptr %10, align 4, !tbaa !35
  %11 = getelementptr inbounds nuw %"class.ncnn::Mat", ptr %3, i32 0, i32 7
  store i32 0, ptr %11, align 8, !tbaa !36
  %12 = getelementptr inbounds nuw %"class.ncnn::Mat", ptr %3, i32 0, i32 8
  store i32 0, ptr %12, align 4, !tbaa !37
  %13 = getelementptr inbounds nuw %"class.ncnn::Mat", ptr %3, i32 0, i32 9
  store i32 0, ptr %13, align 8, !tbaa !38
  %14 = getelementptr inbounds nuw %"class.ncnn::Mat", ptr %3, i32 0, i32 10
  store i64 0, ptr %14, align 8, !tbaa !39
  ret void
}

; Function Attrs: mustprogress uwtable
define hidden void @_ZN4ncnn3Mat15from_pixels_roiEPKhiiiiiiiPNS_9AllocatorE(ptr dead_on_unwind noalias writable sret(%"class.ncnn::Mat") align 8 %0, ptr noundef %1, i32 noundef %2, i32 noundef %3, i32 noundef %4, i32 noundef %5, i32 noundef %6, i32 noundef %7, i32 noundef %8, ptr noundef %9) #0 align 2 {
  %11 = alloca ptr, align 8
  %12 = alloca ptr, align 8
  %13 = alloca i32, align 4
  %14 = alloca i32, align 4
  %15 = alloca i32, align 4
  %16 = alloca i32, align 4
  %17 = alloca i32, align 4
  %18 = alloca i32, align 4
  %19 = alloca i32, align 4
  %20 = alloca ptr, align 8
  %21 = alloca i32, align 4
  %22 = alloca i32, align 4
  store ptr %0, ptr %11, align 8
  store ptr %1, ptr %12, align 8, !tbaa !4
  store i32 %2, ptr %13, align 4, !tbaa !9
  store i32 %3, ptr %14, align 4, !tbaa !9
  store i32 %4, ptr %15, align 4, !tbaa !9
  store i32 %5, ptr %16, align 4, !tbaa !9
  store i32 %6, ptr %17, align 4, !tbaa !9
  store i32 %7, ptr %18, align 4, !tbaa !9
  store i32 %8, ptr %19, align 4, !tbaa !9
  store ptr %9, ptr %20, align 8, !tbaa !21
  %23 = load i32, ptr %16, align 4, !tbaa !9
  %24 = icmp slt i32 %23, 0
  br i1 %24, label %46, label %25

25:                                               ; preds = %10
  %26 = load i32, ptr %17, align 4, !tbaa !9
  %27 = icmp slt i32 %26, 0
  br i1 %27, label %46, label %28

28:                                               ; preds = %25
  %29 = load i32, ptr %18, align 4, !tbaa !9
  %30 = icmp sle i32 %29, 0
  br i1 %30, label %46, label %31

31:                                               ; preds = %28
  %32 = load i32, ptr %19, align 4, !tbaa !9
  %33 = icmp sle i32 %32, 0
  br i1 %33, label %46, label %34

34:                                               ; preds = %31
  %35 = load i32, ptr %16, align 4, !tbaa !9
  %36 = load i32, ptr %18, align 4, !tbaa !9
  %37 = add nsw i32 %35, %36
  %38 = load i32, ptr %14, align 4, !tbaa !9
  %39 = icmp sgt i32 %37, %38
  br i1 %39, label %46, label %40

40:                                               ; preds = %34
  %41 = load i32, ptr %17, align 4, !tbaa !9
  %42 = load i32, ptr %19, align 4, !tbaa !9
  %43 = add nsw i32 %41, %42
  %44 = load i32, ptr %15, align 4, !tbaa !9
  %45 = icmp sgt i32 %43, %44
  br i1 %45, label %46, label %59

46:                                               ; preds = %40, %34, %31, %28, %25, %10
  br label %47

47:                                               ; preds = %46
  %48 = load ptr, ptr @stderr, align 8, !tbaa !23
  %49 = load i32, ptr %16, align 4, !tbaa !9
  %50 = load i32, ptr %17, align 4, !tbaa !9
  %51 = load i32, ptr %18, align 4, !tbaa !9
  %52 = load i32, ptr %19, align 4, !tbaa !9
  %53 = load i32, ptr %14, align 4, !tbaa !9
  %54 = load i32, ptr %15, align 4, !tbaa !9
  %55 = call i32 (ptr, ptr, ...) @fprintf(ptr noundef %48, ptr noundef @.str.3, i32 noundef %49, i32 noundef %50, i32 noundef %51, i32 noundef %52, i32 noundef %53, i32 noundef %54) #9
  %56 = load ptr, ptr @stderr, align 8, !tbaa !23
  %57 = call i32 (ptr, ptr, ...) @fprintf(ptr noundef %56, ptr noundef @.str.1) #9
  br label %58

58:                                               ; preds = %47
  call void @_ZN4ncnn3MatC2Ev(ptr noundef nonnull align 8 dereferenceable(72) %0)
  br label %136

59:                                               ; preds = %40
  call void @llvm.lifetime.start.p0(i64 4, ptr %21) #9
  %60 = load i32, ptr %13, align 4, !tbaa !9
  %61 = and i32 %60, 65535
  store i32 %61, ptr %21, align 4, !tbaa !9
  %62 = load i32, ptr %21, align 4, !tbaa !9
  %63 = icmp eq i32 %62, 1
  br i1 %63, label %67, label %64

64:                                               ; preds = %59
  %65 = load i32, ptr %21, align 4, !tbaa !9
  %66 = icmp eq i32 %65, 2
  br i1 %66, label %67, label %83

67:                                               ; preds = %64, %59
  %68 = load ptr, ptr %12, align 8, !tbaa !4
  %69 = load i32, ptr %17, align 4, !tbaa !9
  %70 = load i32, ptr %14, align 4, !tbaa !9
  %71 = mul nsw i32 %69, %70
  %72 = load i32, ptr %16, align 4, !tbaa !9
  %73 = add nsw i32 %71, %72
  %74 = mul nsw i32 %73, 3
  %75 = sext i32 %74 to i64
  %76 = getelementptr inbounds i8, ptr %68, i64 %75
  %77 = load i32, ptr %13, align 4, !tbaa !9
  %78 = load i32, ptr %18, align 4, !tbaa !9
  %79 = load i32, ptr %19, align 4, !tbaa !9
  %80 = load i32, ptr %14, align 4, !tbaa !9
  %81 = mul nsw i32 %80, 3
  %82 = load ptr, ptr %20, align 8, !tbaa !21
  call void @_ZN4ncnn3Mat11from_pixelsEPKhiiiiPNS_9AllocatorE(ptr dead_on_unwind writable sret(%"class.ncnn::Mat") align 8 %0, ptr noundef %76, i32 noundef %77, i32 noundef %78, i32 noundef %79, i32 noundef %81, ptr noundef %82)
  store i32 1, ptr %22, align 4
  br label %135

83:                                               ; preds = %64
  %84 = load i32, ptr %21, align 4, !tbaa !9
  %85 = icmp eq i32 %84, 3
  br i1 %85, label %86, label %102

86:                                               ; preds = %83
  %87 = load ptr, ptr %12, align 8, !tbaa !4
  %88 = load i32, ptr %17, align 4, !tbaa !9
  %89 = load i32, ptr %14, align 4, !tbaa !9
  %90 = mul nsw i32 %88, %89
  %91 = load i32, ptr %16, align 4, !tbaa !9
  %92 = add nsw i32 %90, %91
  %93 = mul nsw i32 %92, 1
  %94 = sext i32 %93 to i64
  %95 = getelementptr inbounds i8, ptr %87, i64 %94
  %96 = load i32, ptr %13, align 4, !tbaa !9
  %97 = load i32, ptr %18, align 4, !tbaa !9
  %98 = load i32, ptr %19, align 4, !tbaa !9
  %99 = load i32, ptr %14, align 4, !tbaa !9
  %100 = mul nsw i32 %99, 1
  %101 = load ptr, ptr %20, align 8, !tbaa !21
  call void @_ZN4ncnn3Mat11from_pixelsEPKhiiiiPNS_9AllocatorE(ptr dead_on_unwind writable sret(%"class.ncnn::Mat") align 8 %0, ptr noundef %95, i32 noundef %96, i32 noundef %97, i32 noundef %98, i32 noundef %100, ptr noundef %101)
  store i32 1, ptr %22, align 4
  br label %135

102:                                              ; preds = %83
  %103 = load i32, ptr %21, align 4, !tbaa !9
  %104 = icmp eq i32 %103, 4
  br i1 %104, label %108, label %105

105:                                              ; preds = %102
  %106 = load i32, ptr %21, align 4, !tbaa !9
  %107 = icmp eq i32 %106, 5
  br i1 %107, label %108, label %124

108:                                              ; preds = %105, %102
  %109 = load ptr, ptr %12, align 8, !tbaa !4
  %110 = load i32, ptr %17, align 4, !tbaa !9
  %111 = load i32, ptr %14, align 4, !tbaa !9
  %112 = mul nsw i32 %110, %111
  %113 = load i32, ptr %16, align 4, !tbaa !9
  %114 = add nsw i32 %112, %113
  %115 = mul nsw i32 %114, 4
  %116 = sext i32 %115 to i64
  %117 = getelementptr inbounds i8, ptr %109, i64 %116
  %118 = load i32, ptr %13, align 4, !tbaa !9
  %119 = load i32, ptr %18, align 4, !tbaa !9
  %120 = load i32, ptr %19, align 4, !tbaa !9
  %121 = load i32, ptr %14, align 4, !tbaa !9
  %122 = mul nsw i32 %121, 4
  %123 = load ptr, ptr %20, align 8, !tbaa !21
  call void @_ZN4ncnn3Mat11from_pixelsEPKhiiiiPNS_9AllocatorE(ptr dead_on_unwind writable sret(%"class.ncnn::Mat") align 8 %0, ptr noundef %117, i32 noundef %118, i32 noundef %119, i32 noundef %120, i32 noundef %122, ptr noundef %123)
  store i32 1, ptr %22, align 4
  br label %135

124:                                              ; preds = %105
  br label %125

125:                                              ; preds = %124
  br label %126

126:                                              ; preds = %125
  br label %127

127:                                              ; preds = %126
  %128 = load ptr, ptr @stderr, align 8, !tbaa !23
  %129 = load i32, ptr %13, align 4, !tbaa !9
  %130 = call i32 (ptr, ptr, ...) @fprintf(ptr noundef %128, ptr noundef @.str, i32 noundef %129) #9
  %131 = load ptr, ptr @stderr, align 8, !tbaa !23
  %132 = call i32 (ptr, ptr, ...) @fprintf(ptr noundef %131, ptr noundef @.str.1) #9
  br label %133

133:                                              ; preds = %127
  br label %134

134:                                              ; preds = %133
  call void @_ZN4ncnn3MatC2Ev(ptr noundef nonnull align 8 dereferenceable(72) %0)
  store i32 1, ptr %22, align 4
  br label %135

135:                                              ; preds = %134, %108, %86, %67
  call void @llvm.lifetime.end.p0(i64 4, ptr %21) #9
  br label %136

136:                                              ; preds = %135, %58
  ret void
}