; Function Attrs: mustprogress uwtable
define hidden void @_ZN4ncnn3Mat15from_pixels_roiEPKhiiiiiiiPNS_9AllocatorE(ptr dead_on_unwind noalias writable sret(%"class.ncnn::Mat") align 8 initializes((0, 28), (32, 60), (64, 72)) %0, ptr noundef %1, i32 noundef %2, i32 noundef %3, i32 noundef %4, i32 noundef %5, i32 noundef %6, i32 noundef %7, i32 noundef %8, ptr noundef %9) local_unnamed_addr #2 align 2 {
  %11 = or i32 %6, %5
  %or.cond = icmp slt i32 %11, 0
  %12 = icmp slt i32 %7, 1
  %or.cond3 = or i1 %or.cond, %12
  %13 = icmp slt i32 %8, 1
  %or.cond5 = or i1 %or.cond3, %13
  %14 = add nuw nsw i32 %7, %5
  %15 = icmp sgt i32 %14, %3
  %or.cond65 = select i1 %or.cond5, i1 true, i1 %15
  %16 = add nuw nsw i32 %8, %6
  %17 = icmp sgt i32 %16, %4
  %or.cond67 = select i1 %or.cond65, i1 true, i1 %17
  br i1 %or.cond67, label %18, label %24

18:                                               ; preds = %10
  %19 = load ptr, ptr @stderr, align 8, !tbaa !14
  %20 = tail call i32 (ptr, ptr, ...) @fprintf(ptr noundef %19, ptr noundef nonnull @.str.3, i32 noundef %5, i32 noundef %6, i32 noundef %7, i32 noundef %8, i32 noundef %3, i32 noundef %4) #13
  %21 = load ptr, ptr @stderr, align 8, !tbaa !14
  %fputc63 = tail call i32 @fputc(i32 10, ptr %21)
  %22 = getelementptr inbounds nuw i8, ptr %0, i64 32
  %23 = getelementptr inbounds nuw i8, ptr %0, i64 64
  store i64 0, ptr %23, align 8, !tbaa !17
  tail call void @llvm.memset.p0.i64(ptr noundef nonnull align 8 dereferenceable(28) %0, i8 0, i64 28, i1 false)
  tail call void @llvm.memset.p0.i64(ptr noundef nonnull align 8 dereferenceable(28) %22, i8 0, i64 28, i1 false)
  br label %56

24:                                               ; preds = %10
  %25 = and i32 %2, 65535
  %26 = add nsw i32 %25, -1
  %or.cond7 = icmp ult i32 %26, 2
  br i1 %or.cond7, label %27, label %34

27:                                               ; preds = %24
  %28 = mul nsw i32 %6, %3
  %29 = add nuw nsw i32 %28, %5
  %30 = mul nsw i32 %29, 3
  %31 = zext nneg i32 %30 to i64
  %32 = getelementptr inbounds nuw i8, ptr %1, i64 %31
  %33 = mul nsw i32 %3, 3
  tail call void @_ZN4ncnn3Mat11from_pixelsEPKhiiiiPNS_9AllocatorE(ptr dead_on_unwind writable sret(%"class.ncnn::Mat") align 8 %0, ptr noundef %32, i32 noundef %2, i32 noundef %7, i32 noundef %8, i32 noundef %33, ptr noundef %9)
  br label %56

34:                                               ; preds = %24
  %35 = icmp eq i32 %25, 3
  br i1 %35, label %36, label %41

36:                                               ; preds = %34
  %37 = mul nsw i32 %6, %3
  %38 = add nuw nsw i32 %37, %5
  %39 = zext nneg i32 %38 to i64
  %40 = getelementptr inbounds nuw i8, ptr %1, i64 %39
  tail call void @_ZN4ncnn3Mat11from_pixelsEPKhiiiiPNS_9AllocatorE(ptr dead_on_unwind writable sret(%"class.ncnn::Mat") align 8 %0, ptr noundef %40, i32 noundef %2, i32 noundef %7, i32 noundef %8, i32 noundef %3, ptr noundef %9)
  br label %56

41:                                               ; preds = %34
  %42 = and i32 %2, 65534
  %or.cond9 = icmp eq i32 %42, 4
  br i1 %or.cond9, label %43, label %50

43:                                               ; preds = %41
  %44 = mul nsw i32 %6, %3
  %45 = add nuw nsw i32 %44, %5
  %46 = shl nsw i32 %45, 2
  %47 = zext nneg i32 %46 to i64
  %48 = getelementptr inbounds nuw i8, ptr %1, i64 %47
  %49 = shl nsw i32 %3, 2
  tail call void @_ZN4ncnn3Mat11from_pixelsEPKhiiiiPNS_9AllocatorE(ptr dead_on_unwind writable sret(%"class.ncnn::Mat") align 8 %0, ptr noundef %48, i32 noundef %2, i32 noundef %7, i32 noundef %8, i32 noundef %49, ptr noundef %9)
  br label %56

50:                                               ; preds = %41
  %51 = load ptr, ptr @stderr, align 8, !tbaa !14
  %52 = tail call i32 (ptr, ptr, ...) @fprintf(ptr noundef %51, ptr noundef nonnull @.str, i32 noundef %2) #13
  %53 = load ptr, ptr @stderr, align 8, !tbaa !14
  %fputc = tail call i32 @fputc(i32 10, ptr %53)
  %54 = getelementptr inbounds nuw i8, ptr %0, i64 32
  %55 = getelementptr inbounds nuw i8, ptr %0, i64 64
  store i64 0, ptr %55, align 8, !tbaa !17
  tail call void @llvm.memset.p0.i64(ptr noundef nonnull align 8 dereferenceable(28) %0, i8 0, i64 28, i1 false)
  tail call void @llvm.memset.p0.i64(ptr noundef nonnull align 8 dereferenceable(28) %54, i8 0, i64 28, i1 false)
  br label %56

56:                                               ; preds = %27, %36, %43, %50, %18
  ret void
}